target datalayout = "e-m:e-p270:32:32-p271:32:32-p272:64:64-i64:64-i128:128-f80:128-n8:16:32:64-S128"
target triple = "x86_64-pc-linux-gnu"

%struct.AVBSFContext = type { ptr, ptr, ptr, ptr, ptr, %struct.AVRational, %struct.AVRational }
%struct.AVRational = type { i32, i32 }
%struct.BSFListContext = type { ptr, ptr, i32, i32, ptr }

; Function Attrs: nounwind uwtable
define internal void @bsf_list_close(ptr noundef %0) #0 {
  %2 = alloca ptr, align 8
  %3 = alloca ptr, align 8
  %4 = alloca i32, align 4
  store ptr %0, ptr %2, align 8, !tbaa !10
  call void @llvm.lifetime.start.p0(i64 8, ptr %3) #6
  %5 = load ptr, ptr %2, align 8, !tbaa !10
  %6 = getelementptr inbounds nuw %struct.AVBSFContext, ptr %5, i32 0, i32 2
  %7 = load ptr, ptr %6, align 8, !tbaa !14
  store ptr %7, ptr %3, align 8, !tbaa !81
  call void @llvm.lifetime.start.p0(i64 4, ptr %4) #6
  store i32 0, ptr %4, align 4, !tbaa !31
  br label %8

8:                                                ; preds = %21, %1
  %9 = load i32, ptr %4, align 4, !tbaa !31
  %10 = load ptr, ptr %3, align 8, !tbaa !81
  %11 = getelementptr inbounds nuw %struct.BSFListContext, ptr %10, i32 0, i32 2
  %12 = load i32, ptr %11, align 8, !tbaa !85
  %13 = icmp slt i32 %9, %12
  br i1 %13, label %14, label %24

14:                                               ; preds = %8
  %15 = load ptr, ptr %3, align 8, !tbaa !81
  %16 = getelementptr inbounds nuw %struct.BSFListContext, ptr %15, i32 0, i32 1
  %17 = load ptr, ptr %16, align 8, !tbaa !83
  %18 = load i32, ptr %4, align 4, !tbaa !31
  %19 = sext i32 %18 to i64
  %20 = getelementptr inbounds ptr, ptr %17, i64 %19
  call void @av_bsf_free(ptr noundef %20)
  br label %21

21:                                               ; preds = %14
  %22 = load i32, ptr %4, align 4, !tbaa !31
  %23 = add nsw i32 %22, 1
  store i32 %23, ptr %4, align 4, !tbaa !31
  br label %8, !llvm.loop !92

24:                                               ; preds = %8
  %25 = load ptr, ptr %3, align 8, !tbaa !81
  %26 = getelementptr inbounds nuw %struct.BSFListContext, ptr %25, i32 0, i32 1
  call void @av_freep(ptr noundef %26)
  %27 = load ptr, ptr %3, align 8, !tbaa !81
  %28 = getelementptr inbounds nuw %struct.BSFListContext, ptr %27, i32 0, i32 4
  call void @av_freep(ptr noundef %28)
  call void @llvm.lifetime.end.p0(i64 4, ptr %4) #6
  call void @llvm.lifetime.end.p0(i64 8, ptr %3) #6
  ret void
}